target datalayout = "e-m:e-p270:32:32-p271:32:32-p272:64:64-i64:64-i128:128-f80:128-n8:16:32:64-S128"
target triple = "x86_64-unknown-linux-gnu"

%"class.absl::lts_20230802::Status" = type { i64 }
%"class.grpc_core::RefCountedPtr.163" = type { ptr }
%"class.grpc_core::RefCounted" = type { %"class.grpc_core::PolymorphicRefCount", %"class.grpc_core::RefCount" }
%"class.grpc_core::PolymorphicRefCount" = type { ptr }
%"class.grpc_core::RefCount" = type { %"struct.std::atomic.166" }
%"struct.std::atomic.166" = type { %"struct.std::__atomic_base.167" }
%"struct.std::__atomic_base.167" = type { i64 }
%"class.absl::lts_20230802::internal_statusor::StatusOrData.701" = type { %union.anon.702, %union.anon.703 }
%union.anon.702 = type { %"class.absl::lts_20230802::Status" }
%union.anon.703 = type { %"class.grpc_core::RefCountedPtr.163" }

; Function Attrs: mustprogress nounwind uwtable
define internal void @_ZNK9grpc_core11UnrefDeleteclIKNS_12_GLOBAL__N_111XdsResolver15RouteConfigDataEEEvPT_(ptr noundef nonnull align 1 dereferenceable(1) %this, ptr noundef %p) #4 align 2 {
entry:
  %this.addr = alloca ptr, align 8
  %p.addr = alloca ptr, align 8
  store ptr %this, ptr %this.addr, align 8
  store ptr %p, ptr %p.addr, align 8
  %0 = load ptr, ptr %p.addr, align 8
  %isnull = icmp eq ptr %0, null
  br i1 %isnull, label %delete.end, label %delete.notnull

delete.notnull:                                   ; preds = %entry
  %vtable = load ptr, ptr %0, align 8
  %vfn = getelementptr inbounds ptr, ptr %vtable, i64 1
  %1 = load ptr, ptr %vfn, align 8
  call void %1(ptr noundef nonnull align 8 dereferenceable(88) %0) #3
  br label %delete.end

delete.end:                                       ; preds = %delete.notnull, %entry
  ret void
}

; Function Attrs: mustprogress nounwind uwtable
define linkonce_odr noundef zeroext i1 @_ZN9grpc_core8RefCount5UnrefEv(ptr noundef nonnull align 8 dereferenceable(8) %this) #4 comdat align 2 {
entry:
  %this.addr.i = alloca ptr, align 8
  %__i.addr.i = alloca i64, align 8
  %__m.addr.i = alloca i32, align 4
  %.atomictmp.i = alloca i64, align 8
  %atomic-temp.i = alloca i64, align 8
  %this.addr = alloca ptr, align 8
  %prior = alloca i64, align 8
  store ptr %this, ptr %this.addr, align 8
  %this1 = load ptr, ptr %this.addr, align 8
  %value_ = getelementptr inbounds %"class.grpc_core::RefCount", ptr %this1, i32 0, i32 0
  store ptr %value_, ptr %this.addr.i, align 8
  store i64 1, ptr %__i.addr.i, align 8
  store i32 4, ptr %__m.addr.i, align 4
  %this1.i = load ptr, ptr %this.addr.i, align 8
  %0 = load i32, ptr %__m.addr.i, align 4
  %1 = load i64, ptr %__i.addr.i, align 8
  store i64 %1, ptr %.atomictmp.i, align 8
  switch i32 %0, label %monotonic.i [
    i32 1, label %acquire.i
    i32 2, label %acquire.i
    i32 3, label %release.i
    i32 4, label %acqrel.i
    i32 5, label %seqcst.i
  ]

monotonic.i:                                      ; preds = %entry
  %2 = load i64, ptr %.atomictmp.i, align 8
  %3 = atomicrmw sub ptr %this1.i, i64 %2 monotonic, align 8
  store i64 %3, ptr %atomic-temp.i, align 8
  br label %_ZNSt13__atomic_baseIlE9fetch_subElSt12memory_order.exit

acquire.i:                                        ; preds = %entry, %entry
  %4 = load i64, ptr %.atomictmp.i, align 8
  %5 = atomicrmw sub ptr %this1.i, i64 %4 acquire, align 8
  store i64 %5, ptr %atomic-temp.i, align 8
  br label %_ZNSt13__atomic_baseIlE9fetch_subElSt12memory_order.exit

release.i:                                        ; preds = %entry
  %6 = load i64, ptr %.atomictmp.i, align 8
  %7 = atomicrmw sub ptr %this1.i, i64 %6 release, align 8
  store i64 %7, ptr %atomic-temp.i, align 8
  br label %_ZNSt13__atomic_baseIlE9fetch_subElSt12memory_order.exit

acqrel.i:                                         ; preds = %entry
  %8 = load i64, ptr %.atomictmp.i, align 8
  %9 = atomicrmw sub ptr %this1.i, i64 %8 acq_rel, align 8
  store i64 %9, ptr %atomic-temp.i, align 8
  br label %_ZNSt13__atomic_baseIlE9fetch_subElSt12memory_order.exit

seqcst.i:                                         ; preds = %entry
  %10 = load i64, ptr %.atomictmp.i, align 8
  %11 = atomicrmw sub ptr %this1.i, i64 %10 seq_cst, align 8
  store i64 %11, ptr %atomic-temp.i, align 8
  br label %_ZNSt13__atomic_baseIlE9fetch_subElSt12memory_order.exit

_ZNSt13__atomic_baseIlE9fetch_subElSt12memory_order.exit: ; preds = %seqcst.i, %acqrel.i, %release.i, %acquire.i, %monotonic.i
  %12 = load i64, ptr %atomic-temp.i, align 8
  store i64 %12, ptr %prior, align 8
  %13 = load i64, ptr %prior, align 8
  %cmp = icmp eq i64 %13, 1
  ret i1 %cmp
}

; Function Attrs: mustprogress nounwind uwtable
define linkonce_odr noundef zeroext i1 @_ZN4absl12lts_202308026Status9IsInlinedEm(i64 noundef %rep) #4 comdat align 2 {
entry:
  %rep.addr = alloca i64, align 8
  store i64 %rep, ptr %rep.addr, align 8
  %0 = load i64, ptr %rep.addr, align 8
  %and = and i64 %0, 1
  %cmp = icmp eq i64 %and, 0
  ret i1 %cmp
}

; Function Attrs: mustprogress nounwind uwtable
define linkonce_odr noundef i64 @_ZN4absl12lts_202308026Status16CodeToInlinedRepENS0_10StatusCodeE(i32 noundef %code) #4 comdat align 2 {
entry:
  %code.addr = alloca i32, align 4
  store i32 %code, ptr %code.addr, align 4
  %0 = load i32, ptr %code.addr, align 4
  %conv = sext i32 %0 to i64
  %shl = shl i64 %conv, 2
  ret i64 %shl
}

; Function Attrs: mustprogress uwtable
define internal void @_ZNK9grpc_core10RefCountedINS_12_GLOBAL__N_111XdsResolver15RouteConfigDataENS_19PolymorphicRefCountENS_11UnrefDeleteEE5UnrefEv(ptr noundef nonnull align 8 dereferenceable(16) %this) #5 align 2 {
entry:
  %this.addr = alloca ptr, align 8
  store ptr %this, ptr %this.addr, align 8
  %this1 = load ptr, ptr %this.addr, align 8
  %refs_ = getelementptr inbounds %"class.grpc_core::RefCounted", ptr %this1, i32 0, i32 1
  %call = call noundef zeroext i1 @_ZN9grpc_core8RefCount5UnrefEv(ptr noundef nonnull align 8 dereferenceable(8) %refs_)
  br i1 %call, label %if.then, label %if.end

if.then:                                          ; preds = %entry
  call void @_ZNK9grpc_core11UnrefDeleteclIKNS_12_GLOBAL__N_111XdsResolver15RouteConfigDataEEEvPT_(ptr noundef nonnull align 1 dereferenceable(1) %this1, ptr noundef %this1)
  br label %if.end

if.end:                                           ; preds = %if.then, %entry
  ret void
}

; Function Attrs: mustprogress uwtable
define linkonce_odr void @_ZN4absl12lts_202308026Status5UnrefEm(i64 noundef %rep) #5 comdat align 2 {
entry:
  %rep.addr = alloca i64, align 8
  store i64 %rep, ptr %rep.addr, align 8
  %0 = load i64, ptr %rep.addr, align 8
  %call = call noundef zeroext i1 @_ZN4absl12lts_202308026Status9IsInlinedEm(i64 noundef %0)
  br i1 %call, label %if.end, label %if.then

if.then:                                          ; preds = %entry
  %1 = load i64, ptr %rep.addr, align 8
  call void @_ZN4absl12lts_202308026Status15UnrefNonInlinedEm(i64 noundef %1)
  br label %if.end

if.end:                                           ; preds = %if.then, %entry
  ret void
}

; Function Attrs: mustprogress nounwind uwtable
define linkonce_odr noundef zeroext i1 @_ZNK4absl12lts_202308026Status2okEv(ptr noundef nonnull align 8 dereferenceable(8) %this) #4 comdat align 2 {
entry:
  %this.addr = alloca ptr, align 8
  store ptr %this, ptr %this.addr, align 8
  %this1 = load ptr, ptr %this.addr, align 8
  %rep_ = getelementptr inbounds %"class.absl::lts_20230802::Status", ptr %this1, i32 0, i32 0
  %0 = load i64, ptr %rep_, align 8
  %call = call noundef i64 @_ZN4absl12lts_202308026Status16CodeToInlinedRepENS0_10StatusCodeE(i32 noundef 0)
  %cmp = icmp eq i64 %0, %call
  ret i1 %cmp
}

; Function Attrs: mustprogress nounwind uwtable
define internal void @_ZN9grpc_core13RefCountedPtrINS_12_GLOBAL__N_111XdsResolver15RouteConfigDataEED2Ev(ptr noundef nonnull align 8 dereferenceable(8) %this) unnamed_addr #4 align 2 personality ptr @__gxx_personality_v0 {
entry:
  %this.addr = alloca ptr, align 8
  store ptr %this, ptr %this.addr, align 8
  %this1 = load ptr, ptr %this.addr, align 8
  %value_ = getelementptr inbounds %"class.grpc_core::RefCountedPtr.163", ptr %this1, i32 0, i32 0
  %0 = load ptr, ptr %value_, align 8
  %cmp = icmp ne ptr %0, null
  br i1 %cmp, label %if.then, label %if.end

if.then:                                          ; preds = %entry
  %value_2 = getelementptr inbounds %"class.grpc_core::RefCountedPtr.163", ptr %this1, i32 0, i32 0
  %1 = load ptr, ptr %value_2, align 8
  invoke void @_ZNK9grpc_core10RefCountedINS_12_GLOBAL__N_111XdsResolver15RouteConfigDataENS_19PolymorphicRefCountENS_11UnrefDeleteEE5UnrefEv(ptr noundef nonnull align 8 dereferenceable(16) %1)
          to label %invoke.cont unwind label %terminate.lpad

invoke.cont:                                      ; preds = %if.then
  br label %if.end

if.end:                                           ; preds = %invoke.cont, %entry
  ret void

terminate.lpad:                                   ; preds = %if.then
  %2 = landingpad { ptr, i32 }
          catch ptr null
  %3 = extractvalue { ptr, i32 } %2, 0
  call void @__clang_call_terminate(ptr %3) #18
  unreachable
}

; Function Attrs: mustprogress nounwind uwtable
define linkonce_odr void @_ZN4absl12lts_202308026StatusD2Ev(ptr noundef nonnull align 8 dereferenceable(8) %this) unnamed_addr #4 comdat align 2 personality ptr @__gxx_personality_v0 {
entry:
  %this.addr = alloca ptr, align 8
  store ptr %this, ptr %this.addr, align 8
  %this1 = load ptr, ptr %this.addr, align 8
  %rep_ = getelementptr inbounds %"class.absl::lts_20230802::Status", ptr %this1, i32 0, i32 0
  %0 = load i64, ptr %rep_, align 8
  invoke void @_ZN4absl12lts_202308026Status5UnrefEm(i64 noundef %0)
          to label %invoke.cont unwind label %terminate.lpad

invoke.cont:                                      ; preds = %entry
  ret void

terminate.lpad:                                   ; preds = %entry
  %1 = landingpad { ptr, i32 }
          catch ptr null
  %2 = extractvalue { ptr, i32 } %1, 0
  call void @__clang_call_terminate(ptr %2) #18
  unreachable
}

; Function Attrs: mustprogress nounwind uwtable
define internal noundef zeroext i1 @_ZNK4absl12lts_2023080217internal_statusor12StatusOrDataIN9grpc_core13RefCountedPtrINS3_12_GLOBAL__N_111XdsResolver15RouteConfigDataEEEE2okEv(ptr noundef nonnull align 8 dereferenceable(16) %this) #4 align 2 {
entry:
  %this.addr = alloca ptr, align 8
  store ptr %this, ptr %this.addr, align 8
  %this1 = load ptr, ptr %this.addr, align 8
  %0 = getelementptr inbounds %"class.absl::lts_20230802::internal_statusor::StatusOrData.701", ptr %this1, i32 0, i32 0
  %call = call noundef zeroext i1 @_ZNK4absl12lts_202308026Status2okEv(ptr noundef nonnull align 8 dereferenceable(8) %0)
  ret i1 %call
}

; Function Attrs: mustprogress nounwind uwtable
define internal void @_ZN4absl12lts_2023080217internal_statusor12StatusOrDataIN9grpc_core13RefCountedPtrINS3_12_GLOBAL__N_111XdsResolver15RouteConfigDataEEEED2Ev(ptr noundef nonnull align 8 dereferenceable(16) %this) unnamed_addr #4 align 2 {
entry:
  %this.addr = alloca ptr, align 8
  store ptr %this, ptr %this.addr, align 8
  %this1 = load ptr, ptr %this.addr, align 8
  %call = call noundef zeroext i1 @_ZNK4absl12lts_2023080217internal_statusor12StatusOrDataIN9grpc_core13RefCountedPtrINS3_12_GLOBAL__N_111XdsResolver15RouteConfigDataEEEE2okEv(ptr noundef nonnull align 8 dereferenceable(16) %this1)
  br i1 %call, label %if.then, label %if.else

if.then:                                          ; preds = %entry
  %0 = getelementptr inbounds %"class.absl::lts_20230802::internal_statusor::StatusOrData.701", ptr %this1, i32 0, i32 0
  call void @_ZN4absl12lts_202308026StatusD2Ev(ptr noundef nonnull align 8 dereferenceable(8) %0) #3
  %1 = getelementptr inbounds %"class.absl::lts_20230802::internal_statusor::StatusOrData.701", ptr %this1, i32 0, i32 1
  call void @_ZN9grpc_core13RefCountedPtrINS_12_GLOBAL__N_111XdsResolver15RouteConfigDataEED2Ev(ptr noundef nonnull align 8 dereferenceable(8) %1) #3
  br label %if.end

if.else:                                          ; preds = %entry
  %2 = getelementptr inbounds %"class.absl::lts_20230802::internal_statusor::StatusOrData.701", ptr %this1, i32 0, i32 0
  call void @_ZN4absl12lts_202308026StatusD2Ev(ptr noundef nonnull align 8 dereferenceable(8) %2) #3
  br label %if.end

if.end:                                           ; preds = %if.else, %if.then
  ret void
}

; Function Attrs: mustprogress nounwind uwtable
define internal void @_ZN4absl12lts_202308028StatusOrIN9grpc_core13RefCountedPtrINS2_12_GLOBAL__N_111XdsResolver15RouteConfigDataEEEED2Ev(ptr noundef nonnull align 8 dereferenceable(16) %this) unnamed_addr #4 align 2 {
entry:
  %this.addr = alloca ptr, align 8
  store ptr %this, ptr %this.addr, align 8
  %this1 = load ptr, ptr %this.addr, align 8
  call void @_ZN4absl12lts_2023080217internal_statusor12StatusOrDataIN9grpc_core13RefCountedPtrINS3_12_GLOBAL__N_111XdsResolver15RouteConfigDataEEEED2Ev(ptr noundef nonnull align 8 dereferenceable(16) %this1) #3
  ret void
}