; Function Attrs: mustprogress nounwind uwtable
define internal fastcc void @_ZN4absl12lts_202308028StatusOrIN9grpc_core13RefCountedPtrINS2_12_GLOBAL__N_111XdsResolver15RouteConfigDataEEEED2Ev(i64 %this.0.val, ptr %this.8.val) unnamed_addr #7 align 2 personality ptr @__gxx_personality_v0 {
entry:
  %cmp.i.i.i = icmp eq i64 %this.0.val, 0
  br i1 %cmp.i.i.i, label %_ZN4absl12lts_202308026StatusD2Ev.exit.i, label %if.else.i

_ZN4absl12lts_202308026StatusD2Ev.exit.i:         ; preds = %entry
  %cmp.not.i.i = icmp eq ptr %this.8.val, null
  br i1 %cmp.not.i.i, label %_ZN4absl12lts_2023080217internal_statusor12StatusOrDataIN9grpc_core13RefCountedPtrINS3_12_GLOBAL__N_111XdsResolver15RouteConfigDataEEEED2Ev.exit, label %if.then.i.i

if.then.i.i:                                      ; preds = %_ZN4absl12lts_202308026StatusD2Ev.exit.i
  %refs_.i.i.i = getelementptr inbounds i8, ptr %this.8.val, i64 8
  %0 = atomicrmw sub ptr %refs_.i.i.i, i64 1 acq_rel, align 8
  %cmp.i.i.i1.i = icmp eq i64 %0, 1
  br i1 %cmp.i.i.i1.i, label %if.then.i.i2.i, label %_ZN4absl12lts_2023080217internal_statusor12StatusOrDataIN9grpc_core13RefCountedPtrINS3_12_GLOBAL__N_111XdsResolver15RouteConfigDataEEEED2Ev.exit

if.then.i.i2.i:                                   ; preds = %if.then.i.i
  %vtable.i.i.i.i = load ptr, ptr %this.8.val, align 8
  %vfn.i.i.i.i = getelementptr inbounds i8, ptr %vtable.i.i.i.i, i64 8
  %1 = load ptr, ptr %vfn.i.i.i.i, align 8
  tail call void %1(ptr noundef nonnull align 8 dereferenceable(88) %this.8.val) #28
  br label %_ZN4absl12lts_2023080217internal_statusor12StatusOrDataIN9grpc_core13RefCountedPtrINS3_12_GLOBAL__N_111XdsResolver15RouteConfigDataEEEED2Ev.exit

if.else.i:                                        ; preds = %entry
  %and.i.i.i3.i = and i64 %this.0.val, 1
  %cmp.i.i.i4.i = icmp eq i64 %and.i.i.i3.i, 0
  br i1 %cmp.i.i.i4.i, label %_ZN4absl12lts_2023080217internal_statusor12StatusOrDataIN9grpc_core13RefCountedPtrINS3_12_GLOBAL__N_111XdsResolver15RouteConfigDataEEEED2Ev.exit, label %if.then.i.i5.i

if.then.i.i5.i:                                   ; preds = %if.else.i
  invoke void @_ZN4absl12lts_202308026Status15UnrefNonInlinedEm(i64 noundef %this.0.val)
          to label %_ZN4absl12lts_2023080217internal_statusor12StatusOrDataIN9grpc_core13RefCountedPtrINS3_12_GLOBAL__N_111XdsResolver15RouteConfigDataEEEED2Ev.exit unwind label %terminate.lpad.i6.i

terminate.lpad.i6.i:                              ; preds = %if.then.i.i5.i
  %2 = landingpad { ptr, i32 }
          catch ptr null
  %3 = extractvalue { ptr, i32 } %2, 0
  tail call void @__clang_call_terminate(ptr %3) #29
  unreachable

_ZN4absl12lts_2023080217internal_statusor12StatusOrDataIN9grpc_core13RefCountedPtrINS3_12_GLOBAL__N_111XdsResolver15RouteConfigDataEEEED2Ev.exit: ; preds = %_ZN4absl12lts_202308026StatusD2Ev.exit.i, %if.then.i.i, %if.then.i.i2.i, %if.else.i, %if.then.i.i5.i
  ret void
}